; Function Attrs: nounwind uwtable
define hidden i32 @lsarpc_dissect_struct_lsa_TrustDomainInfoAuthInfoInternalAES(ptr noundef %0, i32 noundef %1, ptr noundef %2, ptr noundef %3, ptr noundef %4, ptr noundef %5, i32 noundef %6, i32 %7) local_unnamed_addr #0 {
  %9 = getelementptr inbounds nuw i8, ptr %4, i64 72
  %10 = load ptr, ptr %9, align 8
  %11 = getelementptr inbounds nuw i8, ptr %10, i64 96
  %12 = load i32, ptr %11, align 8
  %13 = and i32 %12, 1
  %.not = icmp eq i32 %13, 0
  %14 = getelementptr inbounds nuw i8, ptr %4, i64 28
  %15 = load i32, ptr %14, align 4
  %.not46 = icmp ne i32 %15, 0
  br i1 %.not, label %21, label %16

16:                                               ; preds = %8
  %17 = and i32 %1, 7
  %.not49 = icmp eq i32 %17, 0
  %or.cond = or i1 %.not49, %.not46
  br i1 %or.cond, label %26, label %18

18:                                               ; preds = %16
  %19 = and i32 %1, -8
  %20 = add i32 %19, 8
  br label %26

21:                                               ; preds = %8
  %22 = and i32 %1, 3
  %.not47 = icmp eq i32 %22, 0
  %or.cond54 = or i1 %.not47, %.not46
  br i1 %or.cond54, label %26, label %23

23:                                               ; preds = %21
  %24 = and i32 %1, -4
  %25 = add i32 %24, 4
  br label %26

26:                                               ; preds = %21, %23, %16, %18
  %.0 = phi i32 [ %1, %16 ], [ %20, %18 ], [ %1, %21 ], [ %25, %23 ]
  %.not50 = icmp eq ptr %3, null
  br i1 %.not50, label %31, label %27

27:                                               ; preds = %26
  %28 = tail call ptr @proto_tree_add_item(ptr noundef nonnull %3, i32 noundef %6, ptr noundef %0, i32 noundef %.0, i32 noundef -1, i32 noundef 0) #5
  %29 = load i32, ptr @ett_lsarpc_lsa_TrustDomainInfoAuthInfoInternalAES, align 4
  %30 = tail call ptr @proto_item_add_subtree(ptr noundef %28, i32 noundef %29) #5
  br label %31

31:                                               ; preds = %27, %26
  %.044 = phi ptr [ %28, %27 ], [ null, %26 ]
  %.043 = phi ptr [ %30, %27 ], [ null, %26 ]
  br label %32

32:                                               ; preds = %32, %31
  %.010.i = phi i32 [ 0, %31 ], [ %35, %32 ]
  %.089.i = phi i32 [ %.0, %31 ], [ %34, %32 ]
  %33 = load i32, ptr @hf_lsarpc_lsa_TrustDomainInfoAuthInfoInternalAES_auth_data, align 4
  %34 = tail call i32 @PIDL_dissect_uint8(ptr noundef %0, i32 noundef %.089.i, ptr noundef %2, ptr noundef %.043, ptr noundef %4, ptr noundef %5, i32 noundef %33, i32 noundef 0) #5
  %35 = add nuw nsw i32 %.010.i, 1
  %exitcond.not.i = icmp eq i32 %35, 64
  br i1 %exitcond.not.i, label %lsarpc_dissect_element_lsa_TrustDomainInfoAuthInfoInternalAES_auth_data.exit, label %32, !llvm.loop !4

lsarpc_dissect_element_lsa_TrustDomainInfoAuthInfoInternalAES_auth_data.exit: ; preds = %32, %lsarpc_dissect_element_lsa_TrustDomainInfoAuthInfoInternalAES_auth_data.exit
  %.010.i56 = phi i32 [ %38, %lsarpc_dissect_element_lsa_TrustDomainInfoAuthInfoInternalAES_auth_data.exit ], [ 0, %32 ]
  %.089.i57 = phi i32 [ %37, %lsarpc_dissect_element_lsa_TrustDomainInfoAuthInfoInternalAES_auth_data.exit ], [ %34, %32 ]
  %36 = load i32, ptr @hf_lsarpc_lsa_TrustDomainInfoAuthInfoInternalAES_salt, align 4
  %37 = tail call i32 @PIDL_dissect_uint8(ptr noundef %0, i32 noundef %.089.i57, ptr noundef %2, ptr noundef %.043, ptr noundef %4, ptr noundef %5, i32 noundef %36, i32 noundef 0) #5
  %38 = add nuw nsw i32 %.010.i56, 1
  %exitcond.not.i58 = icmp eq i32 %38, 16
  br i1 %exitcond.not.i58, label %lsarpc_dissect_element_lsa_TrustDomainInfoAuthInfoInternalAES_salt.exit, label %lsarpc_dissect_element_lsa_TrustDomainInfoAuthInfoInternalAES_auth_data.exit, !llvm.loop !6

lsarpc_dissect_element_lsa_TrustDomainInfoAuthInfoInternalAES_salt.exit: ; preds = %lsarpc_dissect_element_lsa_TrustDomainInfoAuthInfoInternalAES_auth_data.exit
  %39 = load i32, ptr @hf_lsarpc_lsa_TrustDomainInfoAuthInfoInternalAES_cipher, align 4
  %40 = tail call i32 @lsarpc_dissect_struct_lsa_DATA_BUF2(ptr noundef %0, i32 noundef %37, ptr noundef %2, ptr noundef %.043, ptr noundef %4, ptr noundef %5, i32 noundef %39, i32 poison)
  %41 = sub i32 %40, %.0
  tail call void @proto_item_set_len(ptr noundef %.044, i32 noundef %41) #5
  %42 = load ptr, ptr %9, align 8
  %43 = getelementptr inbounds nuw i8, ptr %42, i64 96
  %44 = load i32, ptr %43, align 8
  %45 = and i32 %44, 1
  %.not51 = icmp eq i32 %45, 0
  br i1 %.not51, label %53, label %46

46:                                               ; preds = %lsarpc_dissect_element_lsa_TrustDomainInfoAuthInfoInternalAES_salt.exit
  %47 = getelementptr inbounds nuw i8, ptr %4, i64 28
  %48 = load i32, ptr %47, align 4
  %.not52 = icmp ne i32 %48, 0
  %49 = and i32 %40, 7
  %.not53 = icmp eq i32 %49, 0
  %or.cond55 = or i1 %.not53, %.not52
  br i1 %or.cond55, label %53, label %50

50:                                               ; preds = %46
  %51 = and i32 %40, -8
  %52 = add i32 %51, 8
  br label %53

53:                                               ; preds = %50, %46, %lsarpc_dissect_element_lsa_TrustDomainInfoAuthInfoInternalAES_salt.exit
  %.1 = phi i32 [ %40, %46 ], [ %52, %50 ], [ %40, %lsarpc_dissect_element_lsa_TrustDomainInfoAuthInfoInternalAES_salt.exit ]
  ret i32 %.1
}